target datalayout = "e-m:e-p270:32:32-p271:32:32-p272:64:64-i64:64-i128:128-f80:128-n8:16:32:64-S128"
target triple = "x86_64-pc-linux-gnu"

%struct.TT_CMap_ClassRec_ = type { %struct.FT_CMap_ClassRec_, i32, ptr, ptr }
%struct.FT_CMap_ClassRec_ = type { i64, ptr, ptr, ptr, ptr, ptr, ptr, ptr, ptr, ptr }
%struct.FT_CMapRec_ = type { %struct.FT_CharMapRec_, ptr }
%struct.FT_CharMapRec_ = type { ptr, i32, i16, i16 }

; Function Attrs: nounwind uwtable
define internal i32 @tt_get_cmap_info(ptr noundef %0, ptr noundef %1) #0 {
  %3 = alloca i32, align 4
  %4 = alloca ptr, align 8
  %5 = alloca ptr, align 8
  %6 = alloca ptr, align 8
  %7 = alloca ptr, align 8
  store ptr %0, ptr %4, align 8
  store ptr %1, ptr %5, align 8
  %8 = load ptr, ptr %4, align 8
  store ptr %8, ptr %6, align 8
  %9 = load ptr, ptr %6, align 8
  %10 = getelementptr inbounds %struct.FT_CMapRec_, ptr %9, i32 0, i32 1
  %11 = load ptr, ptr %10, align 8
  store ptr %11, ptr %7, align 8
  %12 = load ptr, ptr %7, align 8
  %13 = getelementptr inbounds %struct.TT_CMap_ClassRec_, ptr %12, i32 0, i32 3
  %14 = load ptr, ptr %13, align 8
  %15 = icmp ne ptr %14, null
  br i1 %15, label %16, label %23

16:                                               ; preds = %2
  %17 = load ptr, ptr %7, align 8
  %18 = getelementptr inbounds %struct.TT_CMap_ClassRec_, ptr %17, i32 0, i32 3
  %19 = load ptr, ptr %18, align 8
  %20 = load ptr, ptr %4, align 8
  %21 = load ptr, ptr %5, align 8
  %22 = call i32 %19(ptr noundef %20, ptr noundef %21)
  store i32 %22, ptr %3, align 4
  br label %24

23:                                               ; preds = %2
  store i32 150, ptr %3, align 4
  br label %24

24:                                               ; preds = %23, %16
  %25 = load i32, ptr %3, align 4
  ret i32 %25
}